target datalayout = "e-m:e-p270:32:32-p271:32:32-p272:64:64-i64:64-i128:128-f80:128-n8:16:32:64-S128"
target triple = "x86_64-pc-linux-gnu"

@stderr = external global ptr, align 8
@.str.17 = private unnamed_addr constant [2 x i8] c"\0A\00", align 1
@.str.35 = private unnamed_addr constant [32 x i8] c"denormals_zero %d not supported\00", align 1

; Function Attrs: mustprogress nounwind uwtable
define hidden noundef i32 @_ZN4ncnn19set_flush_denormalsEi(i32 noundef %0) #2 {
  %2 = alloca i32, align 4
  %3 = alloca i32, align 4
  store i32 %0, ptr %3, align 4, !tbaa !9
  %4 = load i32, ptr %3, align 4, !tbaa !9
  %5 = icmp slt i32 %4, 0
  br i1 %5, label %9, label %6

6:                                                ; preds = %1
  %7 = load i32, ptr %3, align 4, !tbaa !9
  %8 = icmp sgt i32 %7, 3
  br i1 %8, label %9, label %17

9:                                                ; preds = %6, %1
  br label %10

10:                                               ; preds = %9
  %11 = load ptr, ptr @stderr, align 8, !tbaa !15
  %12 = load i32, ptr %3, align 4, !tbaa !9
  %13 = call i32 (ptr, ptr, ...) @fprintf(ptr noundef %11, ptr noundef @.str.35, i32 noundef %12) #17
  %14 = load ptr, ptr @stderr, align 8, !tbaa !15
  %15 = call i32 (ptr, ptr, ...) @fprintf(ptr noundef %14, ptr noundef @.str.17) #17
  br label %16

16:                                               ; preds = %10
  store i32 -1, ptr %2, align 4
  br label %18

17:                                               ; preds = %6
  store i32 0, ptr %2, align 4
  br label %18

18:                                               ; preds = %17, %16
  %19 = load i32, ptr %2, align 4
  ret i32 %19
}