; Function Attrs: mustprogress nofree nounwind uwtable
define hidden noundef range(i32 -1, 1) i32 @_ZN4ncnn19set_flush_denormalsEi(i32 noundef %0) local_unnamed_addr #7 {
  %or.cond = icmp ugt i32 %0, 3
  br i1 %or.cond, label %2, label %6

2:                                                ; preds = %1
  %3 = load ptr, ptr @stderr, align 8, !tbaa !15
  %4 = tail call i32 (ptr, ptr, ...) @fprintf(ptr noundef %3, ptr noundef nonnull @.str.35, i32 noundef %0) #28
  %5 = load ptr, ptr @stderr, align 8, !tbaa !15
  %fputc = tail call i32 @fputc(i32 10, ptr %5)
  br label %6

6:                                                ; preds = %1, %2
  %.0 = phi i32 [ -1, %2 ], [ 0, %1 ]
  ret i32 %.0
}